target datalayout = "e-m:e-p270:32:32-p271:32:32-p272:64:64-i64:64-i128:128-f80:128-n8:16:32:64-S128"
target triple = "x86_64-pc-linux-gnu"

%"struct.Minisat::Lit" = type { i32 }
%"class.Minisat::vec.2" = type { ptr, i32, i32 }

@_ZTIN7Minisat20OutOfMemoryExceptionE = linkonce_odr constant { ptr, ptr } { ptr getelementptr inbounds (ptr, ptr @_ZTVN10__cxxabiv117__class_type_infoE, i64 2), ptr @_ZTSN7Minisat20OutOfMemoryExceptionE }, comdat, align 8

; Function Attrs: mustprogress nounwind uwtable
define linkonce_odr noundef i32 @_ZN7Minisat3vecIjiE3maxEii(i32 noundef %0, i32 noundef %1) #1 comdat align 2 {
  %3 = alloca i32, align 4
  %4 = alloca i32, align 4
  store i32 %0, ptr %3, align 4
  store i32 %1, ptr %4, align 4
  %5 = load i32, ptr %3, align 4
  %6 = load i32, ptr %4, align 4
  %7 = icmp sgt i32 %5, %6
  br i1 %7, label %8, label %10

8:                                                ; preds = %2
  %9 = load i32, ptr %3, align 4
  br label %12

10:                                               ; preds = %2
  %11 = load i32, ptr %4, align 4
  br label %12

12:                                               ; preds = %10, %8
  %13 = phi i32 [ %9, %8 ], [ %11, %10 ]
  ret i32 %13
}

; Function Attrs: mustprogress uwtable
define linkonce_odr void @_ZN7Minisat3vecIjiE8capacityEi(ptr noundef nonnull align 8 dereferenceable(16) %0, i32 noundef %1) #2 comdat align 2 {
  %3 = alloca ptr, align 8
  %4 = alloca i32, align 4
  %5 = alloca i32, align 4
  %6 = alloca i32, align 4
  store ptr %0, ptr %3, align 8
  store i32 %1, ptr %4, align 4
  %7 = load ptr, ptr %3, align 8
  %8 = getelementptr inbounds %"class.Minisat::vec.2", ptr %7, i32 0, i32 2
  %9 = load i32, ptr %8, align 4
  %10 = load i32, ptr %4, align 4
  %11 = icmp sge i32 %9, %10
  br i1 %11, label %12, label %13

12:                                               ; preds = %2
  br label %49

13:                                               ; preds = %2
  %14 = load i32, ptr %4, align 4
  %15 = getelementptr inbounds %"class.Minisat::vec.2", ptr %7, i32 0, i32 2
  %16 = load i32, ptr %15, align 4
  %17 = sub nsw i32 %14, %16
  %18 = add nsw i32 %17, 1
  %19 = and i32 %18, -2
  %20 = getelementptr inbounds %"class.Minisat::vec.2", ptr %7, i32 0, i32 2
  %21 = load i32, ptr %20, align 4
  %22 = ashr i32 %21, 1
  %23 = add nsw i32 %22, 2
  %24 = and i32 %23, -2
  %25 = call noundef i32 @_ZN7Minisat3vecIjiE3maxEii(i32 noundef %19, i32 noundef %24)
  store i32 %25, ptr %5, align 4
  store i32 2147483647, ptr %6, align 4
  %26 = load i32, ptr %5, align 4
  %27 = getelementptr inbounds %"class.Minisat::vec.2", ptr %7, i32 0, i32 2
  %28 = load i32, ptr %27, align 4
  %29 = sub nsw i32 2147483647, %28
  %30 = icmp sgt i32 %26, %29
  br i1 %30, label %47, label %31

31:                                               ; preds = %13
  %32 = getelementptr inbounds %"class.Minisat::vec.2", ptr %7, i32 0, i32 0
  %33 = load ptr, ptr %32, align 8
  %34 = load i32, ptr %5, align 4
  %35 = getelementptr inbounds %"class.Minisat::vec.2", ptr %7, i32 0, i32 2
  %36 = load i32, ptr %35, align 4
  %37 = add nsw i32 %36, %34
  store i32 %37, ptr %35, align 4
  %38 = sext i32 %37 to i64
  %39 = mul i64 %38, 4
  %40 = call ptr @realloc(ptr noundef %33, i64 noundef %39) #17
  %41 = getelementptr inbounds %"class.Minisat::vec.2", ptr %7, i32 0, i32 0
  store ptr %40, ptr %41, align 8
  %42 = icmp eq ptr %40, null
  br i1 %42, label %43, label %49

43:                                               ; preds = %31
  %44 = call ptr @__errno_location() #18
  %45 = load i32, ptr %44, align 4
  %46 = icmp eq i32 %45, 12
  br i1 %46, label %47, label %49

47:                                               ; preds = %43, %13
  %48 = call ptr @__cxa_allocate_exception(i64 1) #3
  call void @__cxa_throw(ptr %48, ptr @_ZTIN7Minisat20OutOfMemoryExceptionE, ptr null) #19
  unreachable

49:                                               ; preds = %43, %31, %12
  ret void
}

; Function Attrs: mustprogress uwtable
define linkonce_odr void @_ZN7Minisat3vecIjiE4pushERKj(ptr noundef nonnull align 8 dereferenceable(16) %0, ptr noundef nonnull align 4 dereferenceable(4) %1) #2 comdat align 2 {
  %3 = alloca ptr, align 8
  %4 = alloca ptr, align 8
  store ptr %0, ptr %3, align 8
  store ptr %1, ptr %4, align 8
  %5 = load ptr, ptr %3, align 8
  %6 = getelementptr inbounds %"class.Minisat::vec.2", ptr %5, i32 0, i32 1
  %7 = load i32, ptr %6, align 8
  %8 = getelementptr inbounds %"class.Minisat::vec.2", ptr %5, i32 0, i32 2
  %9 = load i32, ptr %8, align 4
  %10 = icmp eq i32 %7, %9
  br i1 %10, label %11, label %15

11:                                               ; preds = %2
  %12 = getelementptr inbounds %"class.Minisat::vec.2", ptr %5, i32 0, i32 1
  %13 = load i32, ptr %12, align 8
  %14 = add nsw i32 %13, 1
  call void @_ZN7Minisat3vecIjiE8capacityEi(ptr noundef nonnull align 8 dereferenceable(16) %5, i32 noundef %14)
  br label %15

15:                                               ; preds = %11, %2
  %16 = getelementptr inbounds %"class.Minisat::vec.2", ptr %5, i32 0, i32 0
  %17 = load ptr, ptr %16, align 8
  %18 = getelementptr inbounds %"class.Minisat::vec.2", ptr %5, i32 0, i32 1
  %19 = load i32, ptr %18, align 8
  %20 = add nsw i32 %19, 1
  store i32 %20, ptr %18, align 8
  %21 = sext i32 %19 to i64
  %22 = getelementptr inbounds i32, ptr %17, i64 %21
  %23 = load ptr, ptr %4, align 8
  %24 = load i32, ptr %23, align 4
  store i32 %24, ptr %22, align 4
  ret void
}

; Function Attrs: mustprogress nounwind uwtable
define linkonce_odr noundef i32 @_ZN7Minisat5toIntENS_3LitE(i32 %0) #1 comdat {
  %2 = alloca %"struct.Minisat::Lit", align 4
  %3 = getelementptr inbounds %"struct.Minisat::Lit", ptr %2, i32 0, i32 0
  store i32 %0, ptr %3, align 4
  %4 = getelementptr inbounds %"struct.Minisat::Lit", ptr %2, i32 0, i32 0
  %5 = load i32, ptr %4, align 4
  ret i32 %5
}

; Function Attrs: mustprogress uwtable
define internal void @_ZL12mkElimClauseRN7Minisat3vecIjiEENS_3LitE(ptr noundef nonnull align 8 dereferenceable(16) %0, i32 %1) #2 {
  %3 = alloca %"struct.Minisat::Lit", align 4
  %4 = alloca ptr, align 8
  %5 = alloca i32, align 4
  %6 = alloca %"struct.Minisat::Lit", align 4
  %7 = alloca i32, align 4
  %8 = getelementptr inbounds %"struct.Minisat::Lit", ptr %3, i32 0, i32 0
  store i32 %1, ptr %8, align 4
  store ptr %0, ptr %4, align 8
  %9 = load ptr, ptr %4, align 8
  call void @llvm.memcpy.p0.p0.i64(ptr align 4 %6, ptr align 4 %3, i64 4, i1 false)
  %10 = getelementptr inbounds %"struct.Minisat::Lit", ptr %6, i32 0, i32 0
  %11 = load i32, ptr %10, align 4
  %12 = call noundef i32 @_ZN7Minisat5toIntENS_3LitE(i32 %11)
  store i32 %12, ptr %5, align 4
  call void @_ZN7Minisat3vecIjiE4pushERKj(ptr noundef nonnull align 8 dereferenceable(16) %9, ptr noundef nonnull align 4 dereferenceable(4) %5)
  %13 = load ptr, ptr %4, align 8
  store i32 1, ptr %7, align 4
  call void @_ZN7Minisat3vecIjiE4pushERKj(ptr noundef nonnull align 8 dereferenceable(16) %13, ptr noundef nonnull align 4 dereferenceable(4) %7)
  ret void
}